; Function Attrs: mustprogress uwtable
define void @_ZN8QuantLib8Settings20anchorEvaluationDateEv(ptr nocapture noundef nonnull align 8 dereferenceable(28) %this) local_unnamed_addr #3 align 2 {
entry:
  %ref.tmp = alloca %"class.QuantLib::Date", align 8
  call void @llvm.lifetime.start.p0(i64 8, ptr nonnull %ref.tmp) #10
  call void @_ZN8QuantLib4DateC1Ev(ptr noundef nonnull align 8 dereferenceable(8) %ref.tmp)
  %0 = load i64, ptr %this, align 8, !tbaa !28
  %1 = load i64, ptr %ref.tmp, align 8, !tbaa !28
  %cmp.i = icmp eq i64 %0, %1
  call void @llvm.lifetime.end.p0(i64 8, ptr nonnull %ref.tmp) #10
  br i1 %cmp.i, label %if.then, label %if.end

if.then:                                          ; preds = %entry
  %call4 = call i64 @_ZN8QuantLib4Date10todaysDateEv()
  %2 = load i64, ptr %this, align 8, !tbaa !28
  %cmp.i.not.i = icmp eq i64 %2, %call4
  br i1 %cmp.i.not.i, label %if.end, label %if.then.i

if.then.i:                                        ; preds = %if.then
  store i64 %call4, ptr %this, align 8, !tbaa !3
  %observable_.i.i = getelementptr inbounds nuw i8, ptr %this, i64 8
  %3 = load ptr, ptr %observable_.i.i, align 8, !tbaa !18
  %cmp.not.i.i.i = icmp eq ptr %3, null
  br i1 %cmp.not.i.i.i, label %cond.false.i.i.i, label %_ZN8QuantLib15ObservableValueINS_4DateEEaSERKS1_.exit.i, !prof !39

cond.false.i.i.i:                                 ; preds = %if.then.i
  call void @_ZN5boost16assertion_failedEPKcS1_S1_l(ptr noundef nonnull @.str, ptr noundef nonnull @__PRETTY_FUNCTION__._ZNK5boost10shared_ptrIN8QuantLib10ObservableEEptEv, ptr noundef nonnull @.str.2, i64 noundef 784)
  %.pre.i.i.i = load ptr, ptr %observable_.i.i, align 8, !tbaa !18
  br label %_ZN8QuantLib15ObservableValueINS_4DateEEaSERKS1_.exit.i

_ZN8QuantLib15ObservableValueINS_4DateEEaSERKS1_.exit.i: ; preds = %cond.false.i.i.i, %if.then.i
  %4 = phi ptr [ %3, %if.then.i ], [ %.pre.i.i.i, %cond.false.i.i.i ]
  call void @_ZN8QuantLib10Observable15notifyObserversEv(ptr noundef nonnull align 8 dereferenceable(56) %4)
  br label %if.end

if.end:                                           ; preds = %_ZN8QuantLib15ObservableValueINS_4DateEEaSERKS1_.exit.i, %if.then, %entry
  ret void
}